; Function Attrs: mustprogress uwtable
define dso_local noundef zeroext i1 @_Z8TruncateRKNSt7__cxx1112basic_stringIcSt11char_traitsIcESaIcEEEmPS4_(ptr noundef nonnull readonly align 8 captures(none) dereferenceable(32) %0, i64 noundef %1, ptr noundef %2) local_unnamed_addr #7 {
  %4 = load ptr, ptr %0, align 8, !tbaa !15
  %5 = tail call i32 @truncate(ptr noundef %4, i64 noundef %1) #32
  %6 = icmp sgt i32 %5, -1
  br i1 %6, label %15, label %7

7:                                                ; preds = %3
  %8 = tail call ptr @__errno_location() #38
  %9 = load i32, ptr %8, align 4, !tbaa !25
  %10 = tail call ptr @strerror(i32 noundef %9) #32
  %11 = getelementptr inbounds nuw i8, ptr %2, i64 8
  %12 = load i64, ptr %11, align 8, !tbaa !9
  %13 = tail call noundef i64 @strlen(ptr noundef nonnull dereferenceable(1) %10) #32
  %14 = tail call noundef nonnull align 8 dereferenceable(32) ptr @_ZNSt7__cxx1112basic_stringIcSt11char_traitsIcESaIcEE10_M_replaceEmmPKcm(ptr noundef nonnull align 8 dereferenceable(32) %2, i64 noundef 0, i64 noundef %12, ptr noundef nonnull %10, i64 noundef %13)
  br label %15

15:                                               ; preds = %3, %7
  ret i1 %6
}